Certificate:
    Data:
        Version: 3 (0x2)
        Serial Number: 1 (0x1)
        Signature Algorithm: sha256WithRSAEncryption
        Issuer: C=FR, ST=Radius, L=Somewhere, O=Example Inc./emailAddress=admin@example.org, CN=Example Certificate Authority
        Validity
            Not Before: Mar 14 09:21:29 2025 GMT
            Not After : May 13 09:21:29 2025 GMT
        Subject: C=FR, ST=Radius, O=Example Inc., CN=Example Server Certificate/emailAddress=admin@example.org
        Subject Public Key Info:
            Public Key Algorithm: rsaEncryption
                Public-Key: (2048 bit)
                Modulus:
                    00:af:f6:0a:a9:13:fb:64:91:0b:57:0d:62:49:2e:
                    0d:b8:63:4b:24:b4:03:1f:45:59:9b:6e:11:c3:d7:
                    cb:c4:3e:71:d1:4b:60:e2:68:b1:37:e4:2d:00:4f:
                    c8:e3:52:8e:9b:f6:2e:3e:9d:88:c9:98:a6:b6:e6:
                    11:5a:b0:ba:56:b0:4f:3f:de:61:a9:17:dd:7b:7c:
                    10:95:7a:48:52:fa:ee:81:f3:d7:08:b3:f2:9e:c7:
                    1b:3e:57:6b:87:c8:49:8f:f1:ad:6b:05:9a:4e:9d:
                    b7:34:fe:2c:96:74:ef:7e:ec:ba:fe:da:b3:89:fc:
                    f7:de:99:0b:25:99:35:75:0f:9a:0b:3b:9f:41:9c:
                    72:28:06:8e:68:1d:1d:00:24:78:10:66:9c:b9:c3:
                    aa:ee:1e:bc:46:09:82:d2:12:37:6b:a0:a1:11:06:
                    d6:08:86:43:6f:21:07:ab:fe:23:f3:67:d4:d6:03:
                    9c:e8:22:5b:65:2f:a2:dd:74:59:96:c3:42:80:64:
                    f6:2f:d8:56:f6:96:2e:13:04:9b:5d:c3:fa:e8:a7:
                    b1:09:c3:b9:63:6b:5e:0b:6f:9c:25:4a:4c:36:d1:
                    8c:80:9f:a7:92:ff:13:a3:70:92:82:c0:7a:e3:41:
                    e5:b5:50:87:5c:1c:a6:7c:4a:dd:30:44:48:d5:22:
                    cc:59
                Exponent: 65537 (0x10001)
        X509v3 extensions:
            X509v3 Extended Key Usage: 
                TLS Web Server Authentication
            X509v3 CRL Distribution Points: 
                Full Name:
                  URI:http://www.example.com/example_ca.crl

            X509v3 Subject Key Identifier: 
                50:6D:98:D3:4D:08:32:E7:C9:1A:39:7A:1A:CC:44:FD:C3:F1:97:E4
            X509v3 Authority Key Identifier: 
                ED:36:78:D8:5C:E4:D6:FB:8E:31:06:56:72:75:24:0C:04:98:78:9D
    Signature Algorithm: sha256WithRSAEncryption
    Signature Value:
        8b:59:83:44:d8:d5:59:a0:ee:ae:14:ce:06:cf:9f:bd:83:21:
        64:9a:72:16:0b:38:ca:b2:da:27:fd:80:05:3f:49:05:ec:73:
        1b:41:88:ba:51:fa:aa:4f:28:34:ca:3b:5b:06:5d:cd:6e:d7:
        fe:35:ed:e9:f2:55:2b:f0:41:9e:7d:ff:a7:25:44:99:0a:be:
        38:42:17:ca:4d:d8:21:46:0d:2f:a2:95:e7:ef:b1:0a:23:67:
        47:b0:1b:55:d1:51:47:da:4a:f1:fc:4c:32:05:ee:b4:b4:7c:
        19:55:eb:68:db:89:fd:23:b5:2d:a0:f3:fd:f2:0f:78:8d:0d:
        76:ca:34:16:e7:1f:d8:bb:3a:77:8e:a6:7a:b4:e9:99:a6:bb:
        99:cd:b1:d4:22:cb:14:1d:10:84:61:d7:06:18:a1:98:fe:ec:
        21:d1:cc:29:f0:81:ed:9b:12:2f:c6:03:7e:40:0c:06:5b:91:
        04:7c:f0:5a:33:0a:67:75:d3:04:c7:22:88:83:b0:5a:7f:08:
        47:19:ef:5e:c2:b8:cc:e4:97:23:b8:4d:55:9a:48:7e:85:db:
        b3:73:27:b9:28:36:bb:8f:c2:24:f3:e5:6f:16:d1:15:f6:3d:
        ae:ae:ed:77:82:7c:26:e1:04:90:a5:c7:ae:36:d9:a0:14:7a:
        38:83:db:d6
-----BEGIN CERTIFICATE-----
MIIEHDCCAwSgAwIBAgIBATANBgkqhkiG9w0BAQsFADCBkzELMAkGA1UEBhMCRlIx
DzANBgNVBAgMBlJhZGl1czESMBAGA1UEBwwJU29tZXdoZXJlMRUwEwYDVQQKDAxF
eGFtcGxlIEluYy4xIDAeBgkqhkiG9w0BCQEWEWFkbWluQGV4YW1wbGUub3JnMSYw
JAYDVQQDDB1FeGFtcGxlIENlcnRpZmljYXRlIEF1dGhvcml0eTAeFw0yNTAzMTQw
OTIxMjlaFw0yNTA1MTMwOTIxMjlaMHwxCzAJBgNVBAYTAkZSMQ8wDQYDVQQIDAZS
YWRpdXMxFTATBgNVBAoMDEV4YW1wbGUgSW5jLjEjMCEGA1UEAwwaRXhhbXBsZSBT
ZXJ2ZXIgQ2VydGlmaWNhdGUxIDAeBgkqhkiG9w0BCQEWEWFkbWluQGV4YW1wbGUu
b3JnMIIBIjANBgkqhkiG9w0BAQEFAAOCAQ8AMIIBCgKCAQEAr/YKqRP7ZJELVw1i
SS4NuGNLJLQDH0VZm24Rw9fLxD5x0Utg4mixN+QtAE/I41KOm/YuPp2IyZimtuYR
WrC6VrBPP95hqRfde3wQlXpIUvrugfPXCLPynscbPldrh8hJj/GtawWaTp23NP4s
lnTvfuy6/tqzifz33pkLJZk1dQ+aCzufQZxyKAaOaB0dACR4EGacucOq7h68RgmC
0hI3a6ChEQbWCIZDbyEHq/4j82fU1gOc6CJbZS+i3XRZlsNCgGT2L9hW9pYuEwSb
XcP66KexCcO5Y2teC2+cJUpMNtGMgJ+nkv8To3CSgsB640HltVCHXBymfErdMERI
1SLMWQIDAQABo4GQMIGNMBMGA1UdJQQMMAoGCCsGAQUFBwMBMDYGA1UdHwQvMC0w
K6ApoCeGJWh0dHA6Ly93d3cuZXhhbXBsZS5jb20vZXhhbXBsZV9jYS5jcmwwHQYD
VR0OBBYEFFBtmNNNCDLnyRo5ehrMRP3D8ZfkMB8GA1UdIwQYMBaAFO02eNhc5Nb7
jjEGVnJ1JAwEmHidMA0GCSqGSIb3DQEBCwUAA4IBAQCLWYNE2NVZoO6uFM4Gz5+9
gyFkmnIWCzjKston/YAFP0kF7HMbQYi6UfqqTyg0yjtbBl3Nbtf+Ne3p8lUr8EGe
ff+nJUSZCr44QhfKTdghRg0vopXn77EKI2dHsBtV0VFH2krx/EwyBe60tHwZVeto
24n9I7UtoPP98g94jQ12yjQW5x/Yuzp3jqZ6tOmZpruZzbHUIssUHRCEYdcGGKGY
/uwh0cwp8IHtmxIvxgN+QAwGW5EEfPBaMwpnddMExyKIg7BafwhHGe9ewrjM5Jcj
uE1Vmkh+hduzcye5KDa7j8Ik8+VvFtEV9j2uru13gnwm4QSQpceuNtmgFHo4g9vW
-----END CERTIFICATE-----
